; Function Attrs: mustprogress uwtable
define hidden void @_Z13luaM_visitgcoP9lua_StatePvPFbS1_P8lua_PageP8GCObjectE(ptr noundef readonly captures(none) %0, ptr noundef %1, ptr noundef readonly captures(none) %2) local_unnamed_addr #3 {
  %4 = getelementptr inbounds nuw i8, ptr %0, i64 24
  %5 = load ptr, ptr %4, align 8, !tbaa !4
  %6 = getelementptr inbounds nuw i8, ptr %5, i64 744
  %7 = load ptr, ptr %6, align 8, !tbaa !57
  %.not8 = icmp eq ptr %7, null
  br i1 %.not8, label %._crit_edge, label %.lr.ph

._crit_edge:                                      ; preds = %_Z14luaM_visitpageP8lua_PagePvPFbS1_S0_P8GCObjectE.exit, %3
  ret void

.lr.ph:                                           ; preds = %3, %_Z14luaM_visitpageP8lua_PagePvPFbS1_S0_P8GCObjectE.exit
  %.09 = phi ptr [ %9, %_Z14luaM_visitpageP8lua_PagePvPFbS1_S0_P8GCObjectE.exit ], [ %7, %3 ]
  %8 = getelementptr inbounds nuw i8, ptr %.09, i64 24
  %9 = load ptr, ptr %8, align 8, !tbaa !50
  %10 = getelementptr inbounds nuw i8, ptr %.09, i64 32
  %11 = load i32, ptr %10, align 8, !tbaa !49
  %12 = sext i32 %11 to i64
  %13 = add nsw i64 %12, -56
  %14 = getelementptr inbounds nuw i8, ptr %.09, i64 36
  %15 = load i32, ptr %14, align 4, !tbaa !24
  %16 = sext i32 %15 to i64
  %17 = udiv i64 %13, %16
  %18 = trunc i64 %17 to i32
  %19 = getelementptr inbounds nuw i8, ptr %.09, i64 56
  %20 = getelementptr inbounds nuw i8, ptr %.09, i64 48
  %21 = load i32, ptr %20, align 8, !tbaa !22
  %22 = sext i32 %21 to i64
  %23 = getelementptr inbounds i8, ptr %19, i64 %22
  %24 = mul nsw i32 %15, %18
  %25 = sext i32 %24 to i64
  %26 = getelementptr inbounds i8, ptr %19, i64 %25
  %.016.i = getelementptr inbounds i8, ptr %23, i64 %16
  %.not17.i = icmp eq ptr %.016.i, %26
  br i1 %.not17.i, label %_Z14luaM_visitpageP8lua_PagePvPFbS1_S0_P8GCObjectE.exit, label %.lr.ph.preheader.i

.lr.ph.preheader.i:                               ; preds = %.lr.ph
  %27 = getelementptr inbounds nuw i8, ptr %.09, i64 52
  %28 = load i32, ptr %27, align 4, !tbaa !25
  br label %.lr.ph.i

.lr.ph.i:                                         ; preds = %36, %.lr.ph.preheader.i
  %.019.i = phi ptr [ %.0.i, %36 ], [ %.016.i, %.lr.ph.preheader.i ]
  %.01218.i = phi i32 [ %.1.ph.i, %36 ], [ %28, %.lr.ph.preheader.i ]
  %29 = load i8, ptr %.019.i, align 8, !tbaa !19
  %30 = icmp eq i8 %29, 0
  br i1 %30, label %36, label %31

31:                                               ; preds = %.lr.ph.i
  %32 = tail call noundef zeroext i1 %2(ptr noundef %1, ptr noundef nonnull %.09, ptr noundef nonnull %.019.i)
  br i1 %32, label %33, label %36

33:                                               ; preds = %31
  %34 = add nsw i32 %.01218.i, -1
  %35 = icmp eq i32 %34, 0
  br i1 %35, label %_Z14luaM_visitpageP8lua_PagePvPFbS1_S0_P8GCObjectE.exit, label %36

36:                                               ; preds = %33, %31, %.lr.ph.i
  %.1.ph.i = phi i32 [ %.01218.i, %31 ], [ %.01218.i, %.lr.ph.i ], [ %34, %33 ]
  %.0.i = getelementptr inbounds i8, ptr %.019.i, i64 %16
  %.not.i = icmp eq ptr %.0.i, %26
  br i1 %.not.i, label %_Z14luaM_visitpageP8lua_PagePvPFbS1_S0_P8GCObjectE.exit, label %.lr.ph.i, !llvm.loop !55

_Z14luaM_visitpageP8lua_PagePvPFbS1_S0_P8GCObjectE.exit: ; preds = %33, %36, %.lr.ph
  %.not = icmp eq ptr %9, null
  br i1 %.not, label %._crit_edge, label %.lr.ph, !llvm.loop !58
}